target datalayout = "e-m:e-p270:32:32-p271:32:32-p272:64:64-i64:64-i128:128-f80:128-n8:16:32:64-S128"
target triple = "x86_64-pc-linux-gnu"

%struct.H5O_token_t = type { [16 x i8] }
%struct.trav_info_t = type { i64, i64, ptr, i64, ptr, %struct.symlink_trav_t, ptr }
%struct.symlink_trav_t = type { i64, i64, ptr, i8 }
%struct.trav_path_t = type { ptr, i32, %struct.H5O_token_t, i64 }
%struct.H5O_info2_t = type { i64, %struct.H5O_token_t, i32, i32, i64, i64, i64, i64, i64 }

@H5_libinit_g = external global i8, align 1
@H5_libterm_g = external global i8, align 1
@H5O_TOKEN_UNDEF_g = external constant %struct.H5O_token_t, align 1

; Function Attrs: nounwind uwtable
define void @trav_info_add(ptr noundef %0, ptr noundef %1, i32 noundef %2) #0 {
  %4 = alloca ptr, align 8
  %5 = alloca ptr, align 8
  %6 = alloca i32, align 4
  %7 = alloca i64, align 8
  store ptr %0, ptr %4, align 8, !tbaa !7
  store ptr %1, ptr %5, align 8, !tbaa !10
  store i32 %2, ptr %6, align 4, !tbaa !3
  call void @llvm.lifetime.start.p0(i64 8, ptr %7) #10
  %8 = load ptr, ptr %4, align 8, !tbaa !7
  %9 = icmp ne ptr %8, null
  br i1 %9, label %10, label %94

10:                                               ; preds = %3
  %11 = load ptr, ptr %4, align 8, !tbaa !7
  %12 = getelementptr inbounds nuw %struct.trav_info_t, ptr %11, i32 0, i32 1
  %13 = load i64, ptr %12, align 8, !tbaa !12
  %14 = load ptr, ptr %4, align 8, !tbaa !7
  %15 = getelementptr inbounds nuw %struct.trav_info_t, ptr %14, i32 0, i32 0
  %16 = load i64, ptr %15, align 8, !tbaa !19
  %17 = icmp eq i64 %13, %16
  br i1 %17, label %18, label %44

18:                                               ; preds = %10
  %19 = load ptr, ptr %4, align 8, !tbaa !7
  %20 = getelementptr inbounds nuw %struct.trav_info_t, ptr %19, i32 0, i32 0
  %21 = load i64, ptr %20, align 8, !tbaa !19
  %22 = mul i64 %21, 2
  %23 = icmp ugt i64 1, %22
  br i1 %23, label %24, label %25

24:                                               ; preds = %18
  br label %30

25:                                               ; preds = %18
  %26 = load ptr, ptr %4, align 8, !tbaa !7
  %27 = getelementptr inbounds nuw %struct.trav_info_t, ptr %26, i32 0, i32 0
  %28 = load i64, ptr %27, align 8, !tbaa !19
  %29 = mul i64 %28, 2
  br label %30

30:                                               ; preds = %25, %24
  %31 = phi i64 [ 1, %24 ], [ %29, %25 ]
  %32 = load ptr, ptr %4, align 8, !tbaa !7
  %33 = getelementptr inbounds nuw %struct.trav_info_t, ptr %32, i32 0, i32 0
  store i64 %31, ptr %33, align 8, !tbaa !19
  %34 = load ptr, ptr %4, align 8, !tbaa !7
  %35 = getelementptr inbounds nuw %struct.trav_info_t, ptr %34, i32 0, i32 4
  %36 = load ptr, ptr %35, align 8, !tbaa !20
  %37 = load ptr, ptr %4, align 8, !tbaa !7
  %38 = getelementptr inbounds nuw %struct.trav_info_t, ptr %37, i32 0, i32 0
  %39 = load i64, ptr %38, align 8, !tbaa !19
  %40 = mul i64 %39, 40
  %41 = call ptr @realloc(ptr noundef %36, i64 noundef %40) #11
  %42 = load ptr, ptr %4, align 8, !tbaa !7
  %43 = getelementptr inbounds nuw %struct.trav_info_t, ptr %42, i32 0, i32 4
  store ptr %41, ptr %43, align 8, !tbaa !20
  br label %44

44:                                               ; preds = %30, %10
  %45 = load ptr, ptr %4, align 8, !tbaa !7
  %46 = getelementptr inbounds nuw %struct.trav_info_t, ptr %45, i32 0, i32 1
  %47 = load i64, ptr %46, align 8, !tbaa !12
  %48 = add i64 %47, 1
  store i64 %48, ptr %46, align 8, !tbaa !12
  store i64 %47, ptr %7, align 8, !tbaa !21
  %49 = load ptr, ptr %5, align 8, !tbaa !10
  %50 = call noalias ptr @strdup(ptr noundef %49) #10
  %51 = load ptr, ptr %4, align 8, !tbaa !7
  %52 = getelementptr inbounds nuw %struct.trav_info_t, ptr %51, i32 0, i32 4
  %53 = load ptr, ptr %52, align 8, !tbaa !20
  %54 = load i64, ptr %7, align 8, !tbaa !21
  %55 = getelementptr inbounds nuw %struct.trav_path_t, ptr %53, i64 %54
  %56 = getelementptr inbounds nuw %struct.trav_path_t, ptr %55, i32 0, i32 0
  store ptr %50, ptr %56, align 8, !tbaa !22
  %57 = load i32, ptr %6, align 4, !tbaa !3
  %58 = load ptr, ptr %4, align 8, !tbaa !7
  %59 = getelementptr inbounds nuw %struct.trav_info_t, ptr %58, i32 0, i32 4
  %60 = load ptr, ptr %59, align 8, !tbaa !20
  %61 = load i64, ptr %7, align 8, !tbaa !21
  %62 = getelementptr inbounds nuw %struct.trav_path_t, ptr %60, i64 %61
  %63 = getelementptr inbounds nuw %struct.trav_path_t, ptr %62, i32 0, i32 1
  store i32 %57, ptr %63, align 8, !tbaa !25
  %64 = load ptr, ptr %4, align 8, !tbaa !7
  %65 = getelementptr inbounds nuw %struct.trav_info_t, ptr %64, i32 0, i32 4
  %66 = load ptr, ptr %65, align 8, !tbaa !20
  %67 = load i64, ptr %7, align 8, !tbaa !21
  %68 = getelementptr inbounds nuw %struct.trav_path_t, ptr %66, i64 %67
  %69 = getelementptr inbounds nuw %struct.trav_path_t, ptr %68, i32 0, i32 3
  store i64 0, ptr %69, align 8, !tbaa !26
  %70 = load ptr, ptr %4, align 8, !tbaa !7
  %71 = getelementptr inbounds nuw %struct.trav_info_t, ptr %70, i32 0, i32 4
  %72 = load ptr, ptr %71, align 8, !tbaa !20
  %73 = load i64, ptr %7, align 8, !tbaa !21
  %74 = getelementptr inbounds nuw %struct.trav_path_t, ptr %72, i64 %73
  %75 = getelementptr inbounds nuw %struct.trav_path_t, ptr %74, i32 0, i32 2
  %76 = load i8, ptr @H5_libinit_g, align 1, !tbaa !27, !range !28, !noundef !29
  %77 = trunc i8 %76 to i1
  br i1 %77, label %82, label %78

78:                                               ; preds = %44
  %79 = load i8, ptr @H5_libterm_g, align 1, !tbaa !27, !range !28, !noundef !29
  %80 = trunc i8 %79 to i1
  %81 = xor i1 %80, true
  br label %82

82:                                               ; preds = %78, %44
  %83 = phi i1 [ false, %44 ], [ %81, %78 ]
  %84 = xor i1 %83, true
  %85 = xor i1 %84, true
  %86 = zext i1 %85 to i32
  %87 = sext i32 %86 to i64
  %88 = call i64 @llvm.expect.i64(i64 %87, i64 0)
  %89 = icmp ne i64 %88, 0
  br i1 %89, label %90, label %92

90:                                               ; preds = %82
  %91 = call i32 @H5open()
  br label %93

92:                                               ; preds = %82
  br label %93

93:                                               ; preds = %92, %90
  call void @llvm.memcpy.p0.p0.i64(ptr align 4 %75, ptr align 1 @H5O_TOKEN_UNDEF_g, i64 16, i1 false), !tbaa.struct !30
  br label %94

94:                                               ; preds = %93, %3
  call void @llvm.lifetime.end.p0(i64 8, ptr %7) #10
  ret void
}

; Function Attrs: nounwind uwtable
define i32 @trav_info_visit_obj(ptr noundef %0, ptr noundef %1, ptr noundef %2, ptr noundef %3) #0 {
  %5 = alloca ptr, align 8
  %6 = alloca ptr, align 8
  %7 = alloca ptr, align 8
  %8 = alloca ptr, align 8
  %9 = alloca i64, align 8
  %10 = alloca ptr, align 8
  store ptr %0, ptr %5, align 8, !tbaa !10
  store ptr %1, ptr %6, align 8, !tbaa !34
  store ptr %2, ptr %7, align 8, !tbaa !10
  store ptr %3, ptr %8, align 8, !tbaa !36
  call void @llvm.lifetime.start.p0(i64 8, ptr %9) #10
  call void @llvm.lifetime.start.p0(i64 8, ptr %10) #10
  %11 = load ptr, ptr %8, align 8, !tbaa !36
  %12 = load ptr, ptr %5, align 8, !tbaa !10
  %13 = load ptr, ptr %6, align 8, !tbaa !34
  %14 = getelementptr inbounds nuw %struct.H5O_info2_t, ptr %13, i32 0, i32 2
  %15 = load i32, ptr %14, align 8, !tbaa !37
  call void @trav_info_add(ptr noundef %11, ptr noundef %12, i32 noundef %15)
  %16 = load ptr, ptr %8, align 8, !tbaa !36
  store ptr %16, ptr %10, align 8, !tbaa !7
  %17 = load ptr, ptr %10, align 8, !tbaa !7
  %18 = getelementptr inbounds nuw %struct.trav_info_t, ptr %17, i32 0, i32 1
  %19 = load i64, ptr %18, align 8, !tbaa !12
  %20 = sub i64 %19, 1
  store i64 %20, ptr %9, align 8, !tbaa !21
  %21 = load ptr, ptr %10, align 8, !tbaa !7
  %22 = getelementptr inbounds nuw %struct.trav_info_t, ptr %21, i32 0, i32 4
  %23 = load ptr, ptr %22, align 8, !tbaa !20
  %24 = load i64, ptr %9, align 8, !tbaa !21
  %25 = getelementptr inbounds nuw %struct.trav_path_t, ptr %23, i64 %24
  %26 = getelementptr inbounds nuw %struct.trav_path_t, ptr %25, i32 0, i32 2
  %27 = load ptr, ptr %6, align 8, !tbaa !34
  %28 = getelementptr inbounds nuw %struct.H5O_info2_t, ptr %27, i32 0, i32 1
  call void @llvm.memcpy.p0.p0.i64(ptr align 4 %26, ptr align 8 %28, i64 16, i1 false)
  %29 = load ptr, ptr %6, align 8, !tbaa !34
  %30 = getelementptr inbounds nuw %struct.H5O_info2_t, ptr %29, i32 0, i32 0
  %31 = load i64, ptr %30, align 8, !tbaa !32
  %32 = load ptr, ptr %10, align 8, !tbaa !7
  %33 = getelementptr inbounds nuw %struct.trav_info_t, ptr %32, i32 0, i32 4
  %34 = load ptr, ptr %33, align 8, !tbaa !20
  %35 = load i64, ptr %9, align 8, !tbaa !21
  %36 = getelementptr inbounds nuw %struct.trav_path_t, ptr %34, i64 %35
  %37 = getelementptr inbounds nuw %struct.trav_path_t, ptr %36, i32 0, i32 3
  store i64 %31, ptr %37, align 8, !tbaa !26
  call void @llvm.lifetime.end.p0(i64 8, ptr %10) #10
  call void @llvm.lifetime.end.p0(i64 8, ptr %9) #10
  ret i32 0
}